target datalayout = "e-m:e-p270:32:32-p271:32:32-p272:64:64-i64:64-i128:128-f80:128-n8:16:32:64-S128"
target triple = "x86_64-pc-linux-gnu"

%struct.pos = type { [4 x [4 x i16]], [4 x i16], [4 x [4 x i8]], [4 x i32], [50 x [4 x i16]], [50 x i32], [50 x %struct.moveType], i32, i32, [4 x %struct.highCardType], [4 x %struct.highCardType] }
%struct.moveType = type { i32, i32, i32, i32 }
%struct.highCardType = type { i32, i32 }
%struct.ThreadData = type { [4 x i32], i32, i8, [4 x [4 x i16]], i32, %struct.pos, i8, [50 x [4 x i16]], [13 x %struct.WinnersType], [14 x %struct.moveType], [50 x %struct.moveType], [50 x %struct.moveType], double, i32, i32, [8192 x %struct.relRanksType], ptr, %class.Moves }
%struct.WinnersType = type { i32, [4 x %struct.WinnerEntryType] }
%struct.WinnerEntryType = type { i32, i32, i32, i32, i32 }
%struct.relRanksType = type { [15 x [4 x %struct.absRankType]] }
%struct.absRankType = type { i8, i8 }
%class.Moves = type { i32, i32, i32, i32, i32, i32, i32, i32, i32, [13 x %"struct.Moves::trackType"], ptr, [13 x [4 x %struct.movePlyType]], ptr, [13 x [4 x i32]], [13 x %"class.std::__cxx11::basic_string"], [13 x [4 x %"struct.Moves::moveStatType"]], [13 x [4 x %"struct.Moves::moveStatType"]], [13 x [4 x %"struct.Moves::moveStatsType"]], [13 x [4 x %"struct.Moves::moveStatsType"]], %"struct.Moves::moveStatsType", %"struct.Moves::moveStatsType", [16 x { i64, i64 }] }
%"struct.Moves::trackType" = type { i32, i32, [4 x i32], [4 x i32], %struct.trickDataType, [4 x %struct.extCard], [4 x i32], [4 x [4 x i32]], [4 x i32] }
%struct.trickDataType = type { [4 x i32], i32, i32, i32, i32, i32 }
%struct.extCard = type { i32, i32, i32 }
%struct.movePlyType = type { [14 x %struct.moveType], i32, i32 }
%"class.std::__cxx11::basic_string" = type { %"struct.std::__cxx11::basic_string<char>::_Alloc_hider", i64, %union.anon }
%"struct.std::__cxx11::basic_string<char>::_Alloc_hider" = type { ptr }
%union.anon = type { i64, [8 x i8] }
%"struct.Moves::moveStatType" = type { i32, i32, i32, i32 }
%"struct.Moves::moveStatsType" = type { i32, [13 x %"struct.Moves::moveStatType"] }

@bitMapRank = external global [16 x i16], align 16
@_ZL9handDelta = internal constant [4 x i32] [i32 256, i32 16, i32 1, i32 0], align 16

; Function Attrs: mustprogress uwtable
define void @_Z5Make3P3posPtiPK8moveTypeP10ThreadData(ptr noundef %0, ptr noundef %1, i32 noundef %2, ptr noundef %3, ptr noundef %4) #4 {
  %6 = alloca ptr, align 8
  %7 = alloca ptr, align 8
  %8 = alloca i32, align 4
  %9 = alloca ptr, align 8
  %10 = alloca ptr, align 8
  %11 = alloca i32, align 4
  %12 = alloca ptr, align 8
  %13 = alloca i32, align 4
  %14 = alloca i32, align 4
  %15 = alloca i32, align 4
  %16 = alloca i32, align 4
  %17 = alloca i32, align 4
  %18 = alloca i32, align 4
  %19 = alloca ptr, align 8
  %20 = alloca i32, align 4
  %21 = alloca i32, align 4
  %22 = alloca i32, align 4
  store ptr %0, ptr %6, align 8
  store ptr %1, ptr %7, align 8
  store i32 %2, ptr %8, align 4
  store ptr %3, ptr %9, align 8
  store ptr %4, ptr %10, align 8
  %23 = load ptr, ptr %6, align 8
  %24 = getelementptr inbounds nuw %struct.pos, ptr %23, i32 0, i32 5
  %25 = load i32, ptr %8, align 4
  %26 = sext i32 %25 to i64
  %27 = getelementptr inbounds [50 x i32], ptr %24, i64 0, i64 %26
  %28 = load i32, ptr %27, align 4
  store i32 %28, ptr %11, align 4
  %29 = load ptr, ptr %10, align 8
  %30 = getelementptr inbounds nuw %struct.ThreadData, ptr %29, i32 0, i32 17
  %31 = load i32, ptr %8, align 4
  %32 = add nsw i32 %31, 3
  %33 = ashr i32 %32, 2
  %34 = call noundef nonnull align 4 dereferenceable(36) ptr @_ZN5Moves12GetTrickDataEi(ptr noundef nonnull align 8 dereferenceable(39992) %30, i32 noundef %33)
  store ptr %34, ptr %12, align 8
  %35 = load i32, ptr %11, align 4
  %36 = load ptr, ptr %12, align 8
  %37 = getelementptr inbounds nuw %struct.trickDataType, ptr %36, i32 0, i32 4
  %38 = load i32, ptr %37, align 4
  %39 = add nsw i32 %35, %38
  %40 = and i32 %39, 3
  %41 = load ptr, ptr %6, align 8
  %42 = getelementptr inbounds nuw %struct.pos, ptr %41, i32 0, i32 5
  %43 = load i32, ptr %8, align 4
  %44 = sub nsw i32 %43, 1
  %45 = sext i32 %44 to i64
  %46 = getelementptr inbounds [50 x i32], ptr %42, i64 0, i64 %45
  store i32 %40, ptr %46, align 4
  %47 = load i32, ptr %11, align 4
  %48 = add nsw i32 %47, 3
  %49 = and i32 %48, 3
  store i32 %49, ptr %13, align 4
  store i32 0, ptr %14, align 4
  br label %50

50:                                               ; preds = %58, %5
  %51 = load i32, ptr %14, align 4
  %52 = icmp slt i32 %51, 4
  br i1 %52, label %53, label %61

53:                                               ; preds = %50
  %54 = load ptr, ptr %7, align 8
  %55 = load i32, ptr %14, align 4
  %56 = sext i32 %55 to i64
  %57 = getelementptr inbounds i16, ptr %54, i64 %56
  store i16 0, ptr %57, align 2
  br label %58

58:                                               ; preds = %53
  %59 = load i32, ptr %14, align 4
  %60 = add nsw i32 %59, 1
  store i32 %60, ptr %14, align 4
  br label %50, !llvm.loop !38

61:                                               ; preds = %50
  %62 = load ptr, ptr %12, align 8
  %63 = getelementptr inbounds nuw %struct.trickDataType, ptr %62, i32 0, i32 2
  %64 = load i32, ptr %63, align 4
  store i32 %64, ptr %15, align 4
  %65 = load ptr, ptr %12, align 8
  %66 = getelementptr inbounds nuw %struct.trickDataType, ptr %65, i32 0, i32 0
  %67 = load i32, ptr %15, align 4
  %68 = sext i32 %67 to i64
  %69 = getelementptr inbounds [4 x i32], ptr %66, i64 0, i64 %68
  %70 = load i32, ptr %69, align 4
  %71 = icmp sge i32 %70, 2
  br i1 %71, label %72, label %90

72:                                               ; preds = %61
  %73 = load ptr, ptr %12, align 8
  %74 = getelementptr inbounds nuw %struct.trickDataType, ptr %73, i32 0, i32 1
  %75 = load i32, ptr %74, align 4
  store i32 %75, ptr %16, align 4
  %76 = load i32, ptr %16, align 4
  %77 = sext i32 %76 to i64
  %78 = getelementptr inbounds [16 x i16], ptr @bitMapRank, i64 0, i64 %77
  %79 = load i16, ptr %78, align 2
  %80 = zext i16 %79 to i32
  %81 = load ptr, ptr %12, align 8
  %82 = getelementptr inbounds nuw %struct.trickDataType, ptr %81, i32 0, i32 3
  %83 = load i32, ptr %82, align 4
  %84 = or i32 %80, %83
  %85 = trunc i32 %84 to i16
  %86 = load ptr, ptr %7, align 8
  %87 = load i32, ptr %15, align 4
  %88 = sext i32 %87 to i64
  %89 = getelementptr inbounds i16, ptr %86, i64 %88
  store i16 %85, ptr %89, align 2
  br label %90

90:                                               ; preds = %72, %61
  %91 = load ptr, ptr %9, align 8
  %92 = getelementptr inbounds nuw %struct.moveType, ptr %91, i32 0, i32 1
  %93 = load i32, ptr %92, align 4
  store i32 %93, ptr %17, align 4
  %94 = load ptr, ptr %9, align 8
  %95 = getelementptr inbounds nuw %struct.moveType, ptr %94, i32 0, i32 0
  %96 = load i32, ptr %95, align 4
  store i32 %96, ptr %18, align 4
  %97 = load i32, ptr %17, align 4
  %98 = sext i32 %97 to i64
  %99 = getelementptr inbounds [16 x i16], ptr @bitMapRank, i64 0, i64 %98
  %100 = load i16, ptr %99, align 2
  %101 = zext i16 %100 to i32
  %102 = xor i32 %101, -1
  %103 = load ptr, ptr %6, align 8
  %104 = getelementptr inbounds nuw %struct.pos, ptr %103, i32 0, i32 0
  %105 = load i32, ptr %13, align 4
  %106 = sext i32 %105 to i64
  %107 = getelementptr inbounds [4 x [4 x i16]], ptr %104, i64 0, i64 %106
  %108 = load i32, ptr %18, align 4
  %109 = sext i32 %108 to i64
  %110 = getelementptr inbounds [4 x i16], ptr %107, i64 0, i64 %109
  %111 = load i16, ptr %110, align 2
  %112 = zext i16 %111 to i32
  %113 = and i32 %112, %102
  %114 = trunc i32 %113 to i16
  store i16 %114, ptr %110, align 2
  %115 = load i32, ptr %17, align 4
  %116 = sext i32 %115 to i64
  %117 = getelementptr inbounds [16 x i16], ptr @bitMapRank, i64 0, i64 %116
  %118 = load i16, ptr %117, align 2
  %119 = zext i16 %118 to i32
  %120 = load ptr, ptr %6, align 8
  %121 = getelementptr inbounds nuw %struct.pos, ptr %120, i32 0, i32 1
  %122 = load i32, ptr %18, align 4
  %123 = sext i32 %122 to i64
  %124 = getelementptr inbounds [4 x i16], ptr %121, i64 0, i64 %123
  %125 = load i16, ptr %124, align 2
  %126 = zext i16 %125 to i32
  %127 = xor i32 %126, %119
  %128 = trunc i32 %127 to i16
  store i16 %128, ptr %124, align 2
  %129 = load i32, ptr %18, align 4
  %130 = sext i32 %129 to i64
  %131 = getelementptr inbounds [4 x i32], ptr @_ZL9handDelta, i64 0, i64 %130
  %132 = load i32, ptr %131, align 4
  %133 = load ptr, ptr %6, align 8
  %134 = getelementptr inbounds nuw %struct.pos, ptr %133, i32 0, i32 3
  %135 = load i32, ptr %13, align 4
  %136 = sext i32 %135 to i64
  %137 = getelementptr inbounds [4 x i32], ptr %134, i64 0, i64 %136
  %138 = load i32, ptr %137, align 4
  %139 = sub nsw i32 %138, %132
  store i32 %139, ptr %137, align 4
  %140 = load ptr, ptr %6, align 8
  %141 = getelementptr inbounds nuw %struct.pos, ptr %140, i32 0, i32 2
  %142 = load i32, ptr %13, align 4
  %143 = sext i32 %142 to i64
  %144 = getelementptr inbounds [4 x [4 x i8]], ptr %141, i64 0, i64 %143
  %145 = load i32, ptr %18, align 4
  %146 = sext i32 %145 to i64
  %147 = getelementptr inbounds [4 x i8], ptr %144, i64 0, i64 %146
  %148 = load i8, ptr %147, align 1
  %149 = add i8 %148, -1
  store i8 %149, ptr %147, align 1
  %150 = load ptr, ptr %10, align 8
  %151 = getelementptr inbounds nuw %struct.ThreadData, ptr %150, i32 0, i32 8
  %152 = load i32, ptr %8, align 4
  %153 = add nsw i32 %152, 3
  %154 = ashr i32 %153, 2
  %155 = sext i32 %154 to i64
  %156 = getelementptr inbounds [13 x %struct.WinnersType], ptr %151, i64 0, i64 %155
  store ptr %156, ptr %19, align 8
  %157 = load ptr, ptr %19, align 8
  %158 = getelementptr inbounds nuw %struct.WinnersType, ptr %157, i32 0, i32 0
  store i32 0, ptr %158, align 4
  store i32 0, ptr %20, align 4
  br label %159

159:                                              ; preds = %321, %90
  %160 = load i32, ptr %20, align 4
  %161 = icmp slt i32 %160, 4
  br i1 %161, label %162, label %324

162:                                              ; preds = %159
  %163 = load ptr, ptr %12, align 8
  %164 = getelementptr inbounds nuw %struct.trickDataType, ptr %163, i32 0, i32 0
  %165 = load i32, ptr %20, align 4
  %166 = sext i32 %165 to i64
  %167 = getelementptr inbounds [4 x i32], ptr %164, i64 0, i64 %166
  %168 = load i32, ptr %167, align 4
  %169 = icmp ne i32 %168, 0
  br i1 %169, label %170, label %320

170:                                              ; preds = %162
  %171 = load ptr, ptr %19, align 8
  %172 = getelementptr inbounds nuw %struct.WinnersType, ptr %171, i32 0, i32 0
  %173 = load i32, ptr %172, align 4
  store i32 %173, ptr %21, align 4
  %174 = load i32, ptr %20, align 4
  %175 = load ptr, ptr %19, align 8
  %176 = getelementptr inbounds nuw %struct.WinnersType, ptr %175, i32 0, i32 1
  %177 = load i32, ptr %21, align 4
  %178 = sext i32 %177 to i64
  %179 = getelementptr inbounds [4 x %struct.WinnerEntryType], ptr %176, i64 0, i64 %178
  %180 = getelementptr inbounds nuw %struct.WinnerEntryType, ptr %179, i32 0, i32 0
  store i32 %174, ptr %180, align 4
  %181 = load ptr, ptr %6, align 8
  %182 = getelementptr inbounds nuw %struct.pos, ptr %181, i32 0, i32 9
  %183 = load i32, ptr %20, align 4
  %184 = sext i32 %183 to i64
  %185 = getelementptr inbounds [4 x %struct.highCardType], ptr %182, i64 0, i64 %184
  %186 = getelementptr inbounds nuw %struct.highCardType, ptr %185, i32 0, i32 0
  %187 = load i32, ptr %186, align 4
  %188 = load ptr, ptr %19, align 8
  %189 = getelementptr inbounds nuw %struct.WinnersType, ptr %188, i32 0, i32 1
  %190 = load i32, ptr %21, align 4
  %191 = sext i32 %190 to i64
  %192 = getelementptr inbounds [4 x %struct.WinnerEntryType], ptr %189, i64 0, i64 %191
  %193 = getelementptr inbounds nuw %struct.WinnerEntryType, ptr %192, i32 0, i32 1
  store i32 %187, ptr %193, align 4
  %194 = load ptr, ptr %6, align 8
  %195 = getelementptr inbounds nuw %struct.pos, ptr %194, i32 0, i32 9
  %196 = load i32, ptr %20, align 4
  %197 = sext i32 %196 to i64
  %198 = getelementptr inbounds [4 x %struct.highCardType], ptr %195, i64 0, i64 %197
  %199 = getelementptr inbounds nuw %struct.highCardType, ptr %198, i32 0, i32 1
  %200 = load i32, ptr %199, align 4
  %201 = load ptr, ptr %19, align 8
  %202 = getelementptr inbounds nuw %struct.WinnersType, ptr %201, i32 0, i32 1
  %203 = load i32, ptr %21, align 4
  %204 = sext i32 %203 to i64
  %205 = getelementptr inbounds [4 x %struct.WinnerEntryType], ptr %202, i64 0, i64 %204
  %206 = getelementptr inbounds nuw %struct.WinnerEntryType, ptr %205, i32 0, i32 2
  store i32 %200, ptr %206, align 4
  %207 = load ptr, ptr %6, align 8
  %208 = getelementptr inbounds nuw %struct.pos, ptr %207, i32 0, i32 10
  %209 = load i32, ptr %20, align 4
  %210 = sext i32 %209 to i64
  %211 = getelementptr inbounds [4 x %struct.highCardType], ptr %208, i64 0, i64 %210
  %212 = getelementptr inbounds nuw %struct.highCardType, ptr %211, i32 0, i32 0
  %213 = load i32, ptr %212, align 4
  %214 = load ptr, ptr %19, align 8
  %215 = getelementptr inbounds nuw %struct.WinnersType, ptr %214, i32 0, i32 1
  %216 = load i32, ptr %21, align 4
  %217 = sext i32 %216 to i64
  %218 = getelementptr inbounds [4 x %struct.WinnerEntryType], ptr %215, i64 0, i64 %217
  %219 = getelementptr inbounds nuw %struct.WinnerEntryType, ptr %218, i32 0, i32 3
  store i32 %213, ptr %219, align 4
  %220 = load ptr, ptr %6, align 8
  %221 = getelementptr inbounds nuw %struct.pos, ptr %220, i32 0, i32 10
  %222 = load i32, ptr %20, align 4
  %223 = sext i32 %222 to i64
  %224 = getelementptr inbounds [4 x %struct.highCardType], ptr %221, i64 0, i64 %223
  %225 = getelementptr inbounds nuw %struct.highCardType, ptr %224, i32 0, i32 1
  %226 = load i32, ptr %225, align 4
  %227 = load ptr, ptr %19, align 8
  %228 = getelementptr inbounds nuw %struct.WinnersType, ptr %227, i32 0, i32 1
  %229 = load i32, ptr %21, align 4
  %230 = sext i32 %229 to i64
  %231 = getelementptr inbounds [4 x %struct.WinnerEntryType], ptr %228, i64 0, i64 %230
  %232 = getelementptr inbounds nuw %struct.WinnerEntryType, ptr %231, i32 0, i32 4
  store i32 %226, ptr %232, align 4
  %233 = load ptr, ptr %19, align 8
  %234 = getelementptr inbounds nuw %struct.WinnersType, ptr %233, i32 0, i32 0
  %235 = load i32, ptr %234, align 4
  %236 = add nsw i32 %235, 1
  store i32 %236, ptr %234, align 4
  %237 = load ptr, ptr %6, align 8
  %238 = getelementptr inbounds nuw %struct.pos, ptr %237, i32 0, i32 1
  %239 = load i32, ptr %20, align 4
  %240 = sext i32 %239 to i64
  %241 = getelementptr inbounds [4 x i16], ptr %238, i64 0, i64 %240
  %242 = load i16, ptr %241, align 2
  %243 = zext i16 %242 to i32
  store i32 %243, ptr %22, align 4
  %244 = load ptr, ptr %10, align 8
  %245 = getelementptr inbounds nuw %struct.ThreadData, ptr %244, i32 0, i32 15
  %246 = load i32, ptr %22, align 4
  %247 = sext i32 %246 to i64
  %248 = getelementptr inbounds [8192 x %struct.relRanksType], ptr %245, i64 0, i64 %247
  %249 = getelementptr inbounds nuw %struct.relRanksType, ptr %248, i32 0, i32 0
  %250 = getelementptr inbounds [15 x [4 x %struct.absRankType]], ptr %249, i64 0, i64 1
  %251 = load i32, ptr %20, align 4
  %252 = sext i32 %251 to i64
  %253 = getelementptr inbounds [4 x %struct.absRankType], ptr %250, i64 0, i64 %252
  %254 = getelementptr inbounds nuw %struct.absRankType, ptr %253, i32 0, i32 0
  %255 = load i8, ptr %254, align 2
  %256 = sext i8 %255 to i32
  %257 = load ptr, ptr %6, align 8
  %258 = getelementptr inbounds nuw %struct.pos, ptr %257, i32 0, i32 9
  %259 = load i32, ptr %20, align 4
  %260 = sext i32 %259 to i64
  %261 = getelementptr inbounds [4 x %struct.highCardType], ptr %258, i64 0, i64 %260
  %262 = getelementptr inbounds nuw %struct.highCardType, ptr %261, i32 0, i32 0
  store i32 %256, ptr %262, align 4
  %263 = load ptr, ptr %10, align 8
  %264 = getelementptr inbounds nuw %struct.ThreadData, ptr %263, i32 0, i32 15
  %265 = load i32, ptr %22, align 4
  %266 = sext i32 %265 to i64
  %267 = getelementptr inbounds [8192 x %struct.relRanksType], ptr %264, i64 0, i64 %266
  %268 = getelementptr inbounds nuw %struct.relRanksType, ptr %267, i32 0, i32 0
  %269 = getelementptr inbounds [15 x [4 x %struct.absRankType]], ptr %268, i64 0, i64 1
  %270 = load i32, ptr %20, align 4
  %271 = sext i32 %270 to i64
  %272 = getelementptr inbounds [4 x %struct.absRankType], ptr %269, i64 0, i64 %271
  %273 = getelementptr inbounds nuw %struct.absRankType, ptr %272, i32 0, i32 1
  %274 = load i8, ptr %273, align 1
  %275 = sext i8 %274 to i32
  %276 = load ptr, ptr %6, align 8
  %277 = getelementptr inbounds nuw %struct.pos, ptr %276, i32 0, i32 9
  %278 = load i32, ptr %20, align 4
  %279 = sext i32 %278 to i64
  %280 = getelementptr inbounds [4 x %struct.highCardType], ptr %277, i64 0, i64 %279
  %281 = getelementptr inbounds nuw %struct.highCardType, ptr %280, i32 0, i32 1
  store i32 %275, ptr %281, align 4
  %282 = load ptr, ptr %10, align 8
  %283 = getelementptr inbounds nuw %struct.ThreadData, ptr %282, i32 0, i32 15
  %284 = load i32, ptr %22, align 4
  %285 = sext i32 %284 to i64
  %286 = getelementptr inbounds [8192 x %struct.relRanksType], ptr %283, i64 0, i64 %285
  %287 = getelementptr inbounds nuw %struct.relRanksType, ptr %286, i32 0, i32 0
  %288 = getelementptr inbounds [15 x [4 x %struct.absRankType]], ptr %287, i64 0, i64 2
  %289 = load i32, ptr %20, align 4
  %290 = sext i32 %289 to i64
  %291 = getelementptr inbounds [4 x %struct.absRankType], ptr %288, i64 0, i64 %290
  %292 = getelementptr inbounds nuw %struct.absRankType, ptr %291, i32 0, i32 0
  %293 = load i8, ptr %292, align 2
  %294 = sext i8 %293 to i32
  %295 = load ptr, ptr %6, align 8
  %296 = getelementptr inbounds nuw %struct.pos, ptr %295, i32 0, i32 10
  %297 = load i32, ptr %20, align 4
  %298 = sext i32 %297 to i64
  %299 = getelementptr inbounds [4 x %struct.highCardType], ptr %296, i64 0, i64 %298
  %300 = getelementptr inbounds nuw %struct.highCardType, ptr %299, i32 0, i32 0
  store i32 %294, ptr %300, align 4
  %301 = load ptr, ptr %10, align 8
  %302 = getelementptr inbounds nuw %struct.ThreadData, ptr %301, i32 0, i32 15
  %303 = load i32, ptr %22, align 4
  %304 = sext i32 %303 to i64
  %305 = getelementptr inbounds [8192 x %struct.relRanksType], ptr %302, i64 0, i64 %304
  %306 = getelementptr inbounds nuw %struct.relRanksType, ptr %305, i32 0, i32 0
  %307 = getelementptr inbounds [15 x [4 x %struct.absRankType]], ptr %306, i64 0, i64 2
  %308 = load i32, ptr %20, align 4
  %309 = sext i32 %308 to i64
  %310 = getelementptr inbounds [4 x %struct.absRankType], ptr %307, i64 0, i64 %309
  %311 = getelementptr inbounds nuw %struct.absRankType, ptr %310, i32 0, i32 1
  %312 = load i8, ptr %311, align 1
  %313 = sext i8 %312 to i32
  %314 = load ptr, ptr %6, align 8
  %315 = getelementptr inbounds nuw %struct.pos, ptr %314, i32 0, i32 10
  %316 = load i32, ptr %20, align 4
  %317 = sext i32 %316 to i64
  %318 = getelementptr inbounds [4 x %struct.highCardType], ptr %315, i64 0, i64 %317
  %319 = getelementptr inbounds nuw %struct.highCardType, ptr %318, i32 0, i32 1
  store i32 %313, ptr %319, align 4
  br label %320

320:                                              ; preds = %170, %162
  br label %321

321:                                              ; preds = %320
  %322 = load i32, ptr %20, align 4
  %323 = add nsw i32 %322, 1
  store i32 %323, ptr %20, align 4
  br label %159, !llvm.loop !39

324:                                              ; preds = %159
  ret void
}