; Function Attrs: mustprogress uwtable
define void @_Z5Make3P3posPtiPK8moveTypeP10ThreadData(ptr nocapture noundef %0, ptr nocapture noundef writeonly %1, i32 noundef %2, ptr nocapture noundef readonly %3, ptr noundef %4) local_unnamed_addr #3 {
  %6 = getelementptr inbounds nuw i8, ptr %0, i64 472
  %7 = sext i32 %2 to i64
  %8 = getelementptr inbounds [50 x i32], ptr %6, i64 0, i64 %7
  %9 = load i32, ptr %8, align 4
  %10 = getelementptr inbounds nuw i8, ptr %4, i64 987992
  %11 = add nsw i32 %2, 3
  %12 = ashr i32 %11, 2
  %13 = tail call noundef nonnull align 4 dereferenceable(36) ptr @_ZN5Moves12GetTrickDataEi(ptr noundef nonnull align 8 dereferenceable(39992) %10, i32 noundef %12)
  %14 = getelementptr inbounds nuw i8, ptr %13, i64 28
  %15 = load i32, ptr %14, align 4
  %16 = add nsw i32 %15, %9
  %17 = and i32 %16, 3
  %18 = add nsw i32 %2, -1
  %19 = sext i32 %18 to i64
  %20 = getelementptr inbounds [50 x i32], ptr %6, i64 0, i64 %19
  store i32 %17, ptr %20, align 4
  %21 = add nsw i32 %9, 3
  store i64 0, ptr %1, align 2
  %22 = and i32 %21, 3
  %23 = getelementptr inbounds nuw i8, ptr %13, i64 20
  %24 = load i32, ptr %23, align 4
  %25 = sext i32 %24 to i64
  %26 = getelementptr inbounds [4 x i32], ptr %13, i64 0, i64 %25
  %27 = load i32, ptr %26, align 4
  %28 = icmp sgt i32 %27, 1
  br i1 %28, label %29, label %40

29:                                               ; preds = %5
  %30 = getelementptr inbounds nuw i8, ptr %13, i64 16
  %31 = load i32, ptr %30, align 4
  %32 = sext i32 %31 to i64
  %33 = getelementptr inbounds [16 x i16], ptr @bitMapRank, i64 0, i64 %32
  %34 = load i16, ptr %33, align 2
  %35 = getelementptr inbounds nuw i8, ptr %13, i64 24
  %36 = load i32, ptr %35, align 4
  %37 = trunc i32 %36 to i16
  %38 = or i16 %34, %37
  %39 = getelementptr inbounds i16, ptr %1, i64 %25
  store i16 %38, ptr %39, align 2
  br label %40

40:                                               ; preds = %29, %5
  %41 = getelementptr inbounds nuw i8, ptr %3, i64 4
  %42 = load i32, ptr %41, align 4
  %43 = load i32, ptr %3, align 4
  %44 = sext i32 %42 to i64
  %45 = getelementptr inbounds [16 x i16], ptr @bitMapRank, i64 0, i64 %44
  %46 = load i16, ptr %45, align 2
  %47 = xor i16 %46, -1
  %48 = zext nneg i32 %22 to i64
  %49 = sext i32 %43 to i64
  %50 = getelementptr inbounds [4 x [4 x i16]], ptr %0, i64 0, i64 %48, i64 %49
  %51 = load i16, ptr %50, align 2
  %52 = and i16 %51, %47
  store i16 %52, ptr %50, align 2
  %53 = load i16, ptr %45, align 2
  %54 = getelementptr inbounds nuw i8, ptr %0, i64 32
  %55 = getelementptr inbounds [4 x i16], ptr %54, i64 0, i64 %49
  %56 = load i16, ptr %55, align 2
  %57 = xor i16 %56, %53
  store i16 %57, ptr %55, align 2
  %58 = getelementptr inbounds [4 x i32], ptr @_ZL9handDelta, i64 0, i64 %49
  %59 = load i32, ptr %58, align 4
  %60 = getelementptr inbounds nuw i8, ptr %0, i64 56
  %61 = getelementptr inbounds [4 x i32], ptr %60, i64 0, i64 %48
  %62 = load i32, ptr %61, align 4
  %63 = sub nsw i32 %62, %59
  store i32 %63, ptr %61, align 4
  %64 = getelementptr inbounds nuw i8, ptr %0, i64 40
  %65 = getelementptr inbounds [4 x [4 x i8]], ptr %64, i64 0, i64 %48, i64 %49
  %66 = load i8, ptr %65, align 1
  %67 = add i8 %66, -1
  store i8 %67, ptr %65, align 1
  %68 = getelementptr inbounds nuw i8, ptr %4, i64 2008
  %69 = sext i32 %12 to i64
  %70 = getelementptr inbounds [13 x %struct.WinnersType], ptr %68, i64 0, i64 %69
  store i32 0, ptr %70, align 4
  %71 = getelementptr inbounds nuw i8, ptr %70, i64 4
  %72 = getelementptr inbounds nuw i8, ptr %0, i64 1480
  %73 = getelementptr inbounds nuw i8, ptr %0, i64 1512
  %74 = getelementptr inbounds nuw i8, ptr %4, i64 4944
  br label %75

75:                                               ; preds = %40, %115
  %indvars.iv = phi i64 [ 0, %40 ], [ %indvars.iv.next, %115 ]
  %76 = getelementptr inbounds [4 x i32], ptr %13, i64 0, i64 %indvars.iv
  %77 = load i32, ptr %76, align 4
  %.not = icmp eq i32 %77, 0
  br i1 %.not, label %115, label %78

78:                                               ; preds = %75
  %79 = load i32, ptr %70, align 4
  %80 = sext i32 %79 to i64
  %81 = getelementptr inbounds [4 x %struct.WinnerEntryType], ptr %71, i64 0, i64 %80
  %82 = trunc nuw nsw i64 %indvars.iv to i32
  store i32 %82, ptr %81, align 4
  %83 = getelementptr inbounds [4 x %struct.highCardType], ptr %72, i64 0, i64 %indvars.iv
  %84 = load i32, ptr %83, align 4
  %85 = getelementptr inbounds nuw i8, ptr %81, i64 4
  store i32 %84, ptr %85, align 4
  %86 = getelementptr inbounds nuw i8, ptr %83, i64 4
  %87 = load i32, ptr %86, align 4
  %88 = getelementptr inbounds nuw i8, ptr %81, i64 8
  store i32 %87, ptr %88, align 4
  %89 = getelementptr inbounds [4 x %struct.highCardType], ptr %73, i64 0, i64 %indvars.iv
  %90 = load i32, ptr %89, align 4
  %91 = getelementptr inbounds nuw i8, ptr %81, i64 12
  store i32 %90, ptr %91, align 4
  %92 = getelementptr inbounds nuw i8, ptr %89, i64 4
  %93 = load i32, ptr %92, align 4
  %94 = getelementptr inbounds nuw i8, ptr %81, i64 16
  store i32 %93, ptr %94, align 4
  %95 = load i32, ptr %70, align 4
  %96 = add nsw i32 %95, 1
  store i32 %96, ptr %70, align 4
  %97 = getelementptr inbounds [4 x i16], ptr %54, i64 0, i64 %indvars.iv
  %98 = load i16, ptr %97, align 2
  %99 = zext i16 %98 to i64
  %100 = getelementptr inbounds [8192 x %struct.relRanksType], ptr %74, i64 0, i64 %99
  %101 = getelementptr inbounds i8, ptr %100, i64 8
  %102 = getelementptr inbounds [4 x %struct.absRankType], ptr %101, i64 0, i64 %indvars.iv
  %103 = load i8, ptr %102, align 2
  %104 = sext i8 %103 to i32
  store i32 %104, ptr %83, align 4
  %105 = getelementptr inbounds nuw i8, ptr %102, i64 1
  %106 = load i8, ptr %105, align 1
  %107 = sext i8 %106 to i32
  store i32 %107, ptr %86, align 4
  %108 = getelementptr inbounds i8, ptr %100, i64 16
  %109 = getelementptr inbounds [4 x %struct.absRankType], ptr %108, i64 0, i64 %indvars.iv
  %110 = load i8, ptr %109, align 2
  %111 = sext i8 %110 to i32
  store i32 %111, ptr %89, align 4
  %112 = getelementptr inbounds nuw i8, ptr %109, i64 1
  %113 = load i8, ptr %112, align 1
  %114 = sext i8 %113 to i32
  store i32 %114, ptr %92, align 4
  br label %115

115:                                              ; preds = %75, %78
  %indvars.iv.next = add nuw nsw i64 %indvars.iv, 1
  %exitcond.not = icmp eq i64 %indvars.iv.next, 4
  br i1 %exitcond.not, label %116, label %75, !llvm.loop !26

116:                                              ; preds = %115
  ret void
}